target datalayout = "e-m:e-p270:32:32-p271:32:32-p272:64:64-i64:64-i128:128-f80:128-n8:16:32:64-S128"
target triple = "x86_64-pc-linux-gnu"

%struct.Aig_RMan_t_ = type { i32, ptr, i32, ptr, i32, ptr, ptr, [128 x i32], [128 x i32], [128 x i32], [128 x i32], [24 x %struct.Aig_VSig_t_], [12 x i8], [12 x i8], [13 x i32], i32, i32, i32, i32, i32 }
%struct.Aig_VSig_t_ = type { i32, [12 x i32] }

@.str = private unnamed_addr constant [23 x i8] c"Total funcs    = %10d\0A\00", align 1
@.str.1 = private unnamed_addr constant [23 x i8] c"Full DSD funcs = %10d\0A\00", align 1
@.str.2 = private unnamed_addr constant [23 x i8] c"Part DSD funcs = %10d\0A\00", align 1
@.str.3 = private unnamed_addr constant [23 x i8] c"Non- DSD funcs = %10d\0A\00", align 1
@.str.4 = private unnamed_addr constant [23 x i8] c"Uniq-var funcs = %10d\0A\00", align 1
@.str.5 = private unnamed_addr constant [23 x i8] c"Unique   funcs = %10d\0A\00", align 1
@.str.6 = private unnamed_addr constant [28 x i8] c"Distribution of functions:\0A\00", align 1
@.str.7 = private unnamed_addr constant [11 x i8] c"%2d = %8d\0A\00", align 1

; Function Attrs: nounwind uwtable
define void @Aig_RManStop(ptr noundef %0) #0 {
  %2 = alloca ptr, align 8
  %3 = alloca i32, align 4
  store ptr %0, ptr %2, align 8, !tbaa !3
  call void @llvm.lifetime.start.p0(i64 4, ptr %3) #10
  %4 = load ptr, ptr %2, align 8, !tbaa !3
  %5 = getelementptr inbounds nuw %struct.Aig_RMan_t_, ptr %4, i32 0, i32 15
  %6 = load i32, ptr %5, align 4, !tbaa !45
  %7 = call i32 (ptr, ...) @printf(ptr noundef @.str, i32 noundef %6)
  %8 = load ptr, ptr %2, align 8, !tbaa !3
  %9 = getelementptr inbounds nuw %struct.Aig_RMan_t_, ptr %8, i32 0, i32 16
  %10 = load i32, ptr %9, align 8, !tbaa !46
  %11 = call i32 (ptr, ...) @printf(ptr noundef @.str.1, i32 noundef %10)
  %12 = load ptr, ptr %2, align 8, !tbaa !3
  %13 = getelementptr inbounds nuw %struct.Aig_RMan_t_, ptr %12, i32 0, i32 17
  %14 = load i32, ptr %13, align 4, !tbaa !47
  %15 = call i32 (ptr, ...) @printf(ptr noundef @.str.2, i32 noundef %14)
  %16 = load ptr, ptr %2, align 8, !tbaa !3
  %17 = getelementptr inbounds nuw %struct.Aig_RMan_t_, ptr %16, i32 0, i32 18
  %18 = load i32, ptr %17, align 8, !tbaa !48
  %19 = call i32 (ptr, ...) @printf(ptr noundef @.str.3, i32 noundef %18)
  %20 = load ptr, ptr %2, align 8, !tbaa !3
  %21 = getelementptr inbounds nuw %struct.Aig_RMan_t_, ptr %20, i32 0, i32 19
  %22 = load i32, ptr %21, align 4, !tbaa !49
  %23 = call i32 (ptr, ...) @printf(ptr noundef @.str.4, i32 noundef %22)
  %24 = load ptr, ptr %2, align 8, !tbaa !3
  %25 = getelementptr inbounds nuw %struct.Aig_RMan_t_, ptr %24, i32 0, i32 4
  %26 = load i32, ptr %25, align 8, !tbaa !43
  %27 = call i32 (ptr, ...) @printf(ptr noundef @.str.5, i32 noundef %26)
  %28 = call i32 (ptr, ...) @printf(ptr noundef @.str.6)
  store i32 5, ptr %3, align 4, !tbaa !25
  br label %29

29:                                               ; preds = %44, %1
  %30 = load i32, ptr %3, align 4, !tbaa !25
  %31 = load ptr, ptr %2, align 8, !tbaa !3
  %32 = getelementptr inbounds nuw %struct.Aig_RMan_t_, ptr %31, i32 0, i32 0
  %33 = load i32, ptr %32, align 8, !tbaa !8
  %34 = icmp sle i32 %30, %33
  br i1 %34, label %35, label %47

35:                                               ; preds = %29
  %36 = load i32, ptr %3, align 4, !tbaa !25
  %37 = load ptr, ptr %2, align 8, !tbaa !3
  %38 = getelementptr inbounds nuw %struct.Aig_RMan_t_, ptr %37, i32 0, i32 14
  %39 = load i32, ptr %3, align 4, !tbaa !25
  %40 = sext i32 %39 to i64
  %41 = getelementptr inbounds [13 x i32], ptr %38, i64 0, i64 %40
  %42 = load i32, ptr %41, align 4, !tbaa !25
  %43 = call i32 (ptr, ...) @printf(ptr noundef @.str.7, i32 noundef %36, i32 noundef %42)
  br label %44

44:                                               ; preds = %35
  %45 = load i32, ptr %3, align 4, !tbaa !25
  %46 = add nsw i32 %45, 1
  store i32 %46, ptr %3, align 4, !tbaa !25
  br label %29, !llvm.loop !50

47:                                               ; preds = %29
  %48 = load ptr, ptr %2, align 8, !tbaa !3
  %49 = getelementptr inbounds nuw %struct.Aig_RMan_t_, ptr %48, i32 0, i32 5
  %50 = load ptr, ptr %49, align 8, !tbaa !18
  call void @Aig_MmFlexStop(ptr noundef %50, i32 noundef 0)
  %51 = load ptr, ptr %2, align 8, !tbaa !3
  %52 = getelementptr inbounds nuw %struct.Aig_RMan_t_, ptr %51, i32 0, i32 1
  %53 = load ptr, ptr %52, align 8, !tbaa !15
  call void @Aig_ManStop(ptr noundef %53)
  %54 = load ptr, ptr %2, align 8, !tbaa !3
  %55 = getelementptr inbounds nuw %struct.Aig_RMan_t_, ptr %54, i32 0, i32 6
  %56 = load ptr, ptr %55, align 8, !tbaa !24
  call void @Bdc_ManFree(ptr noundef %56)
  %57 = load ptr, ptr %2, align 8, !tbaa !3
  %58 = getelementptr inbounds nuw %struct.Aig_RMan_t_, ptr %57, i32 0, i32 3
  %59 = load ptr, ptr %58, align 8, !tbaa !17
  %60 = icmp ne ptr %59, null
  br i1 %60, label %61, label %67

61:                                               ; preds = %47
  %62 = load ptr, ptr %2, align 8, !tbaa !3
  %63 = getelementptr inbounds nuw %struct.Aig_RMan_t_, ptr %62, i32 0, i32 3
  %64 = load ptr, ptr %63, align 8, !tbaa !17
  call void @free(ptr noundef %64) #10
  %65 = load ptr, ptr %2, align 8, !tbaa !3
  %66 = getelementptr inbounds nuw %struct.Aig_RMan_t_, ptr %65, i32 0, i32 3
  store ptr null, ptr %66, align 8, !tbaa !17
  br label %68

67:                                               ; preds = %47
  br label %68

68:                                               ; preds = %67, %61
  %69 = load ptr, ptr %2, align 8, !tbaa !3
  %70 = icmp ne ptr %69, null
  br i1 %70, label %71, label %73

71:                                               ; preds = %68
  %72 = load ptr, ptr %2, align 8, !tbaa !3
  call void @free(ptr noundef %72) #10
  store ptr null, ptr %2, align 8, !tbaa !3
  br label %74

73:                                               ; preds = %68
  br label %74

74:                                               ; preds = %73, %71
  call void @llvm.lifetime.end.p0(i64 4, ptr %3) #10
  ret void
}