; Function Attrs: nounwind uwtable
define void @Aig_RManStop(ptr noundef captures(none) %0) local_unnamed_addr #0 {
  %2 = getelementptr inbounds nuw i8, ptr %0, i64 3428
  %3 = load i32, ptr %2, align 4, !tbaa !36
  %4 = tail call i32 (ptr, ...) @printf(ptr noundef nonnull dereferenceable(1) @.str, i32 noundef %3)
  %5 = getelementptr inbounds nuw i8, ptr %0, i64 3432
  %6 = load i32, ptr %5, align 8, !tbaa !37
  %7 = tail call i32 (ptr, ...) @printf(ptr noundef nonnull dereferenceable(1) @.str.1, i32 noundef %6)
  %8 = getelementptr inbounds nuw i8, ptr %0, i64 3436
  %9 = load i32, ptr %8, align 4, !tbaa !38
  %10 = tail call i32 (ptr, ...) @printf(ptr noundef nonnull dereferenceable(1) @.str.2, i32 noundef %9)
  %11 = getelementptr inbounds nuw i8, ptr %0, i64 3440
  %12 = load i32, ptr %11, align 8, !tbaa !39
  %13 = tail call i32 (ptr, ...) @printf(ptr noundef nonnull dereferenceable(1) @.str.3, i32 noundef %12)
  %14 = getelementptr inbounds nuw i8, ptr %0, i64 3444
  %15 = load i32, ptr %14, align 4, !tbaa !40
  %16 = tail call i32 (ptr, ...) @printf(ptr noundef nonnull dereferenceable(1) @.str.4, i32 noundef %15)
  %17 = getelementptr inbounds nuw i8, ptr %0, i64 32
  %18 = load i32, ptr %17, align 8, !tbaa !34
  %19 = tail call i32 (ptr, ...) @printf(ptr noundef nonnull dereferenceable(1) @.str.5, i32 noundef %18)
  %puts = tail call i32 @puts(ptr nonnull dereferenceable(1) @str)
  %20 = load i32, ptr %0, align 8, !tbaa !3
  %.not21 = icmp slt i32 %20, 5
  br i1 %.not21, label %._crit_edge, label %.lr.ph

.lr.ph:                                           ; preds = %1
  %21 = getelementptr inbounds nuw i8, ptr %0, i64 3376
  br label %22

22:                                               ; preds = %.lr.ph, %22
  %indvars.iv = phi i64 [ 5, %.lr.ph ], [ %indvars.iv.next, %22 ]
  %23 = getelementptr inbounds nuw [13 x i32], ptr %21, i64 0, i64 %indvars.iv
  %24 = load i32, ptr %23, align 4, !tbaa !24
  %25 = trunc nuw nsw i64 %indvars.iv to i32
  %26 = tail call i32 (ptr, ...) @printf(ptr noundef nonnull dereferenceable(1) @.str.7, i32 noundef %25, i32 noundef %24)
  %indvars.iv.next = add nuw nsw i64 %indvars.iv, 1
  %27 = load i32, ptr %0, align 8, !tbaa !3
  %28 = sext i32 %27 to i64
  %.not.not = icmp slt i64 %indvars.iv, %28
  br i1 %.not.not, label %22, label %._crit_edge, !llvm.loop !41

._crit_edge:                                      ; preds = %22, %1
  %29 = getelementptr inbounds nuw i8, ptr %0, i64 40
  %30 = load ptr, ptr %29, align 8, !tbaa !19
  tail call void @Aig_MmFlexStop(ptr noundef %30, i32 noundef 0) #16
  %31 = getelementptr inbounds nuw i8, ptr %0, i64 8
  %32 = load ptr, ptr %31, align 8, !tbaa !13
  tail call void @Aig_ManStop(ptr noundef %32) #16
  %33 = getelementptr inbounds nuw i8, ptr %0, i64 48
  %34 = load ptr, ptr %33, align 8, !tbaa !23
  tail call void @Bdc_ManFree(ptr noundef %34) #16
  %35 = getelementptr inbounds nuw i8, ptr %0, i64 24
  %36 = load ptr, ptr %35, align 8, !tbaa !18
  %.not20 = icmp eq ptr %36, null
  br i1 %.not20, label %38, label %37

37:                                               ; preds = %._crit_edge
  tail call void @free(ptr noundef nonnull %36) #16
  br label %38

38:                                               ; preds = %37, %._crit_edge
  tail call void @free(ptr noundef nonnull %0) #16
  ret void
}